; ModuleID = '38/1701.c'
source_filename = "38/1701.c"
target datalayout = "e-m:e-p270:32:32-p271:32:32-p272:64:64-i64:64-f80:128-n8:16:32:64-S128"
target triple = "x86_64-pc-linux-gnu"

@.str = private unnamed_addr constant [3 x i8] c"%d\00", align 1
@.str.1 = private unnamed_addr constant [4 x i8] c"%lf\00", align 1
@.str.2 = private unnamed_addr constant [7 x i8] c"%.5lf\0A\00", align 1

; Function Attrs: noinline nounwind uwtable
define dso_local i32 @main(i32 %0, i8** %1) #0 {
  %3 = alloca i32, align 4
  %4 = alloca i32, align 4
  %5 = alloca i8**, align 8
  %6 = alloca i32, align 4
  %7 = alloca i32, align 4
  %8 = alloca i32, align 4
  %9 = alloca i32, align 4
  %10 = alloca [1000 x double], align 16
  %11 = alloca double, align 8
  %12 = alloca double, align 8
  %13 = alloca double, align 8
  %14 = alloca double, align 8
  store i32 0, i32* %3, align 4
  store i32 %0, i32* %4, align 4
  store i8** %1, i8*** %5, align 8
  %15 = call i32 (i8*, ...) @__isoc99_scanf(i8* getelementptr inbounds ([3 x i8], [3 x i8]* @.str, i64 0, i64 0), i32* %6)
  store i32 1, i32* %8, align 4
  br label %16

16:                                               ; preds = %85, %2
  %17 = load i32, i32* %8, align 4
  %18 = load i32, i32* %6, align 4
  %19 = icmp sle i32 %17, %18
  br i1 %19, label %20, label %88

20:                                               ; preds = %16
  %21 = call i32 (i8*, ...) @__isoc99_scanf(i8* getelementptr inbounds ([3 x i8], [3 x i8]* @.str, i64 0, i64 0), i32* %7)
  store i32 1, i32* %9, align 4
  br label %22

22:                                               ; preds = %31, %20
  %23 = load i32, i32* %9, align 4
  %24 = load i32, i32* %7, align 4
  %25 = icmp sle i32 %23, %24
  br i1 %25, label %26, label %34

26:                                               ; preds = %22
  %27 = load i32, i32* %9, align 4
  %28 = sext i32 %27 to i64
  %29 = getelementptr inbounds [1000 x double], [1000 x double]* %10, i64 0, i64 %28
  %30 = call i32 (i8*, ...) @__isoc99_scanf(i8* getelementptr inbounds ([4 x i8], [4 x i8]* @.str.1, i64 0, i64 0), double* %29)
  br label %31

31:                                               ; preds = %26
  %32 = load i32, i32* %9, align 4
  %33 = add nsw i32 %32, 1
  store i32 %33, i32* %9, align 4
  br label %22

34:                                               ; preds = %22
  store double 0.000000e+00, double* %11, align 8
  store double 0.000000e+00, double* %12, align 8
  store i32 1, i32* %9, align 4
  br label %35

35:                                               ; preds = %46, %34
  %36 = load i32, i32* %9, align 4
  %37 = load i32, i32* %7, align 4
  %38 = icmp sle i32 %36, %37
  br i1 %38, label %39, label %49

39:                                               ; preds = %35
  %40 = load double, double* %11, align 8
  %41 = load i32, i32* %9, align 4
  %42 = sext i32 %41 to i64
  %43 = getelementptr inbounds [1000 x double], [1000 x double]* %10, i64 0, i64 %42
  %44 = load double, double* %43, align 8
  %45 = fadd double %40, %44
  store double %45, double* %11, align 8
  br label %46

46:                                               ; preds = %39
  %47 = load i32, i32* %9, align 4
  %48 = add nsw i32 %47, 1
  store i32 %48, i32* %9, align 4
  br label %35

49:                                               ; preds = %35
  %50 = load double, double* %11, align 8
  %51 = load i32, i32* %7, align 4
  %52 = sitofp i32 %51 to double
  %53 = fdiv double %50, %52
  store double %53, double* %14, align 8
  store i32 1, i32* %9, align 4
  br label %54

54:                                               ; preds = %79, %49
  %55 = load i32, i32* %9, align 4
  %56 = load i32, i32* %7, align 4
  %57 = icmp sle i32 %55, %56
  br i1 %57, label %58, label %82

58:                                               ; preds = %54
  %59 = load double, double* %12, align 8
  %60 = load i32, i32* %9, align 4
  %61 = sext i32 %60 to i64
  %62 = getelementptr inbounds [1000 x double], [1000 x double]* %10, i64 0, i64 %61
  %63 = load double, double* %62, align 8
  %64 = load double, double* %14, align 8
  %65 = fsub double %63, %64
  %66 = load i32, i32* %9, align 4
  %67 = sext i32 %66 to i64
  %68 = getelementptr inbounds [1000 x double], [1000 x double]* %10, i64 0, i64 %67
  %69 = load double, double* %68, align 8
  %70 = load double, double* %14, align 8
  %71 = fsub double %69, %70
  %72 = fmul double %65, %71
  %73 = fadd double %59, %72
  store double %73, double* %12, align 8
  %74 = load double, double* %12, align 8
  %75 = load i32, i32* %7, align 4
  %76 = sitofp i32 %75 to double
  %77 = fdiv double %74, %76
  %78 = call double @sqrt(double %77) #3
  store double %78, double* %13, align 8
  br label %79

79:                                               ; preds = %58
  %80 = load i32, i32* %9, align 4
  %81 = add nsw i32 %80, 1
  store i32 %81, i32* %9, align 4
  br label %54

82:                                               ; preds = %54
  %83 = load double, double* %13, align 8
  %84 = call i32 (i8*, ...) @printf(i8* getelementptr inbounds ([7 x i8], [7 x i8]* @.str.2, i64 0, i64 0), double %83)
  br label %85

85:                                               ; preds = %82
  %86 = load i32, i32* %8, align 4
  %87 = add nsw i32 %86, 1
  store i32 %87, i32* %8, align 4
  br label %16

88:                                               ; preds = %16
  ret i32 0
}

declare dso_local i32 @__isoc99_scanf(i8*, ...) #1

; Function Attrs: nounwind
declare dso_local double @sqrt(double) #2

declare dso_local i32 @printf(i8*, ...) #1


!llvm.module.flags = !{!0}
!llvm.ident = !{!1}

!0 = !{i32 1, !"wchar_size", i32 4}
!1 = !{!"clang version 10.0.0-4ubuntu1 "}
